#include <math.h>
#include <stdio.h>
#include <stdlib.h>
#include <string.h>

int main()
{
	char a[501],b[501];
	int num,i;
	int same=0,judge=1;
	double standard,actual;
	scanf("%lf",&standard);
	scanf("%s",a);
	scanf("%s",b);
	if(strlen(a)!=strlen(b))
	{
		printf("error");
	}
	else
	{
		num=strlen(a);
		for(i=0;i<num;i++)
		{
			if(((a[i]!='A')&&(a[i]!='T')&&(a[i]!='G')&&(a[i]!='C'))||((b[i]!='A')&&(b[i]!='T')&&(b[i]!='G')&&(b[i]!='C')))
			{
				printf("error");
				judge=0;
				break;
			}
			else
			{
				if(a[i]==b[i])
				{
					same++;
				}
			}
		}
		if(judge!=0)
		{
			actual=1.0*same/num;
			if(actual>standard)
			{
				printf("yes");
			}
			else
			{
				printf("no");
			}
		}
	}
	return 0;
}